target datalayout = "e-m:e-p270:32:32-p271:32:32-p272:64:64-i64:64-i128:128-f80:128-n8:16:32:64-S128"
target triple = "x86_64-pc-linux-gnu"

%struct.FFHWBaseEncodePicture = type { ptr, ptr, ptr, i64, i64, i64, i64, i32, ptr, ptr, i32, i32, i32, i32, ptr, ptr, i32, i32, [16 x ptr], [2 x i32], [2 x [2 x ptr]], ptr, [2 x i32], [2 x i32] }
%struct.FFHWBaseEncodeContext = type { ptr, ptr, ptr, i32, i32, i32, i32, i32, i32, ptr, ptr, ptr, ptr, ptr, ptr, ptr, ptr, [2 x ptr], i32, i64, i64, i64, i64, i64, i64, i64, [112 x i64], i32, i32, i32, i32, i32, i32, i32, i32, i32, i32, i32, i32, i32, i32, i32, i32, ptr, i32, ptr, i32, ptr }

; Function Attrs: nounwind uwtable
define internal i32 @base_encode_pic_free(ptr noundef %0) #0 {
  %2 = alloca ptr, align 8
  store ptr %0, ptr %2, align 8, !tbaa !11
  %3 = load ptr, ptr %2, align 8, !tbaa !11
  %4 = getelementptr inbounds nuw %struct.FFHWBaseEncodePicture, ptr %3, i32 0, i32 14
  call void @av_frame_free(ptr noundef %4)
  %5 = load ptr, ptr %2, align 8, !tbaa !11
  %6 = getelementptr inbounds nuw %struct.FFHWBaseEncodePicture, ptr %5, i32 0, i32 15
  call void @av_frame_free(ptr noundef %6)
  %7 = load ptr, ptr %2, align 8, !tbaa !11
  %8 = getelementptr inbounds nuw %struct.FFHWBaseEncodePicture, ptr %7, i32 0, i32 9
  call void @av_buffer_unref(ptr noundef %8)
  %9 = load ptr, ptr %2, align 8, !tbaa !11
  %10 = getelementptr inbounds nuw %struct.FFHWBaseEncodePicture, ptr %9, i32 0, i32 1
  call void @av_freep(ptr noundef %10)
  %11 = load ptr, ptr %2, align 8, !tbaa !11
  %12 = getelementptr inbounds nuw %struct.FFHWBaseEncodePicture, ptr %11, i32 0, i32 0
  call void @av_freep(ptr noundef %12)
  %13 = load ptr, ptr %2, align 8, !tbaa !11
  call void @av_free(ptr noundef %13)
  ret i32 0
}

; Function Attrs: nounwind uwtable
define i32 @ff_hw_base_encode_close(ptr noundef %0) #0 {
  %2 = alloca ptr, align 8
  %3 = alloca ptr, align 8
  %4 = alloca ptr, align 8
  store ptr %0, ptr %2, align 8, !tbaa !4
  call void @llvm.lifetime.start.p0(i64 8, ptr %3) #7
  %5 = load ptr, ptr %2, align 8, !tbaa !4
  %6 = getelementptr inbounds nuw %struct.FFHWBaseEncodeContext, ptr %5, i32 0, i32 15
  %7 = load ptr, ptr %6, align 8, !tbaa !77
  store ptr %7, ptr %3, align 8, !tbaa !11
  call void @llvm.lifetime.start.p0(i64 8, ptr %4) #7
  %8 = load ptr, ptr %3, align 8, !tbaa !11
  store ptr %8, ptr %4, align 8, !tbaa !11
  br label %9

9:                                                ; preds = %19, %1
  %10 = load ptr, ptr %3, align 8, !tbaa !11
  %11 = icmp ne ptr %10, null
  br i1 %11, label %13, label %12

12:                                               ; preds = %9
  call void @llvm.lifetime.end.p0(i64 8, ptr %4) #7
  call void @llvm.lifetime.end.p0(i64 8, ptr %3) #7
  br label %21

13:                                               ; preds = %9
  %14 = load ptr, ptr %3, align 8, !tbaa !11
  %15 = getelementptr inbounds nuw %struct.FFHWBaseEncodePicture, ptr %14, i32 0, i32 2
  %16 = load ptr, ptr %15, align 8, !tbaa !78
  store ptr %16, ptr %4, align 8, !tbaa !11
  %17 = load ptr, ptr %3, align 8, !tbaa !11
  %18 = call i32 @base_encode_pic_free(ptr noundef %17)
  br label %19

19:                                               ; preds = %13
  %20 = load ptr, ptr %4, align 8, !tbaa !11
  store ptr %20, ptr %3, align 8, !tbaa !11
  br label %9, !llvm.loop !165

21:                                               ; preds = %12
  %22 = load ptr, ptr %2, align 8, !tbaa !4
  %23 = getelementptr inbounds nuw %struct.FFHWBaseEncodeContext, ptr %22, i32 0, i32 45
  call void @av_fifo_freep2(ptr noundef %23)
  %24 = load ptr, ptr %2, align 8, !tbaa !4
  %25 = getelementptr inbounds nuw %struct.FFHWBaseEncodeContext, ptr %24, i32 0, i32 43
  call void @av_frame_free(ptr noundef %25)
  %26 = load ptr, ptr %2, align 8, !tbaa !4
  %27 = getelementptr inbounds nuw %struct.FFHWBaseEncodeContext, ptr %26, i32 0, i32 47
  call void @av_packet_free(ptr noundef %27)
  %28 = load ptr, ptr %2, align 8, !tbaa !4
  %29 = getelementptr inbounds nuw %struct.FFHWBaseEncodeContext, ptr %28, i32 0, i32 9
  call void @av_buffer_unref(ptr noundef %29)
  %30 = load ptr, ptr %2, align 8, !tbaa !4
  %31 = getelementptr inbounds nuw %struct.FFHWBaseEncodeContext, ptr %30, i32 0, i32 11
  call void @av_buffer_unref(ptr noundef %31)
  %32 = load ptr, ptr %2, align 8, !tbaa !4
  %33 = getelementptr inbounds nuw %struct.FFHWBaseEncodeContext, ptr %32, i32 0, i32 13
  call void @av_buffer_unref(ptr noundef %33)
  ret i32 0
}