; Function Attrs: nounwind uwtable
define noundef i32 @ff_hw_base_encode_close(ptr noundef %0) local_unnamed_addr #1 {
  %2 = getelementptr inbounds nuw i8, ptr %0, i64 96
  %3 = load ptr, ptr %2, align 8, !tbaa !70
  %.not12 = icmp eq ptr %3, null
  br i1 %.not12, label %._crit_edge, label %.lr.ph

._crit_edge:                                      ; preds = %.lr.ph, %1
  %4 = getelementptr inbounds nuw i8, ptr %0, i64 1168
  tail call void @av_fifo_freep2(ptr noundef nonnull %4) #8
  %5 = getelementptr inbounds nuw i8, ptr %0, i64 1152
  tail call void @av_frame_free(ptr noundef nonnull %5) #8
  %6 = getelementptr inbounds nuw i8, ptr %0, i64 1184
  tail call void @av_packet_free(ptr noundef nonnull %6) #8
  %7 = getelementptr inbounds nuw i8, ptr %0, i64 48
  tail call void @av_buffer_unref(ptr noundef nonnull %7) #8
  %8 = getelementptr inbounds nuw i8, ptr %0, i64 64
  tail call void @av_buffer_unref(ptr noundef nonnull %8) #8
  %9 = getelementptr inbounds nuw i8, ptr %0, i64 80
  tail call void @av_buffer_unref(ptr noundef nonnull %9) #8
  ret i32 0

.lr.ph:                                           ; preds = %1, %.lr.ph
  %.013 = phi ptr [ %11, %.lr.ph ], [ %3, %1 ]
  %10 = getelementptr inbounds nuw i8, ptr %.013, i64 16
  %11 = load ptr, ptr %10, align 8, !tbaa !71
  %12 = getelementptr inbounds nuw i8, ptr %.013, i64 96
  tail call void @av_frame_free(ptr noundef nonnull %12) #8
  %13 = getelementptr inbounds nuw i8, ptr %.013, i64 104
  tail call void @av_frame_free(ptr noundef nonnull %13) #8
  %14 = getelementptr inbounds nuw i8, ptr %.013, i64 72
  tail call void @av_buffer_unref(ptr noundef nonnull %14) #8
  %15 = getelementptr inbounds nuw i8, ptr %.013, i64 8
  tail call void @av_freep(ptr noundef nonnull %15) #8
  tail call void @av_freep(ptr noundef nonnull %.013) #8
  tail call void @av_free(ptr noundef nonnull %.013) #8
  %.not = icmp eq ptr %11, null
  br i1 %.not, label %._crit_edge, label %.lr.ph, !llvm.loop !165
}